target datalayout = "e-m:e-p270:32:32-p271:32:32-p272:64:64-i64:64-i128:128-f80:128-n8:16:32:64-S128"
target triple = "x86_64-pc-linux-gnu"

%struct.FxuMatrix = type { %struct.FxuListCube, %struct.FxuListVar, ptr, ptr, i32, i32, i32, ptr, %struct.FxuListSingle, ptr, i32, i32, ptr, ptr, ptr, ptr, ptr, ptr, ptr, i32, i32, i32, i32, ptr }
%struct.FxuListCube = type { ptr, ptr, i32 }
%struct.FxuListVar = type { ptr, ptr, i32 }
%struct.FxuListSingle = type { ptr, ptr, i32 }

@s_MemoryTotal = internal global i32 0, align 4
@s_MemoryPeak = internal global i32 0, align 4

; Function Attrs: nounwind uwtable
define ptr @Fxu_MemFetch(ptr noundef %0, i32 noundef %1) #0 {
  %3 = alloca ptr, align 8
  %4 = alloca i32, align 4
  store ptr %0, ptr %3, align 8, !tbaa !10
  store i32 %1, ptr %4, align 4, !tbaa !8
  %5 = load i32, ptr %4, align 4, !tbaa !8
  %6 = load i32, ptr @s_MemoryTotal, align 4, !tbaa !8
  %7 = add nsw i32 %6, %5
  store i32 %7, ptr @s_MemoryTotal, align 4, !tbaa !8
  %8 = load i32, ptr @s_MemoryPeak, align 4, !tbaa !8
  %9 = load i32, ptr @s_MemoryTotal, align 4, !tbaa !8
  %10 = icmp slt i32 %8, %9
  br i1 %10, label %11, label %13

11:                                               ; preds = %2
  %12 = load i32, ptr @s_MemoryTotal, align 4, !tbaa !8
  store i32 %12, ptr @s_MemoryPeak, align 4, !tbaa !8
  br label %13

13:                                               ; preds = %11, %2
  %14 = load ptr, ptr %3, align 8, !tbaa !10
  %15 = getelementptr inbounds nuw %struct.FxuMatrix, ptr %14, i32 0, i32 23
  %16 = load ptr, ptr %15, align 8, !tbaa !65
  %17 = call ptr @Extra_MmFixedEntryFetch(ptr noundef %16)
  ret ptr %17
}