; Function Attrs: nounwind uwtable
define ptr @Fxu_MemFetch(ptr noundef readonly captures(none) %0, i32 noundef %1) local_unnamed_addr #0 {
  %3 = load i32, ptr @s_MemoryTotal, align 4, !tbaa !3
  %4 = add nsw i32 %3, %1
  store i32 %4, ptr @s_MemoryTotal, align 4, !tbaa !3
  %5 = load i32, ptr @s_MemoryPeak, align 4, !tbaa !3
  %6 = icmp slt i32 %5, %4
  br i1 %6, label %7, label %8

7:                                                ; preds = %2
  store i32 %4, ptr @s_MemoryPeak, align 4, !tbaa !3
  br label %8

8:                                                ; preds = %7, %2
  %9 = getelementptr inbounds nuw i8, ptr %0, i64 200
  %10 = load ptr, ptr %9, align 8, !tbaa !57
  %11 = tail call ptr @Extra_MmFixedEntryFetch(ptr noundef %10) #7
  ret ptr %11
}